target datalayout = "e-m:e-p270:32:32-p271:32:32-p272:64:64-i64:64-i128:128-f80:128-n8:16:32:64-S128"
target triple = "x86_64-pc-linux-gnu"

%struct.Hop_Obj_t_ = type { %union.anon, %union.anon.0, ptr, ptr, i32, i32 }
%union.anon = type { ptr }
%union.anon.0 = type { ptr }
%struct.Vec_Ptr_t_ = type { i32, i32, ptr }

; Function Attrs: inlinehint nounwind uwtable
define internal void @Vec_PtrGrow(ptr noundef %0, i32 noundef %1) #3 {
  %3 = alloca ptr, align 8
  %4 = alloca i32, align 4
  store ptr %0, ptr %3, align 8, !tbaa !27
  store i32 %1, ptr %4, align 4, !tbaa !8
  %5 = load ptr, ptr %3, align 8, !tbaa !27
  %6 = getelementptr inbounds nuw %struct.Vec_Ptr_t_, ptr %5, i32 0, i32 0
  %7 = load i32, ptr %6, align 8, !tbaa !41
  %8 = load i32, ptr %4, align 4, !tbaa !8
  %9 = icmp sge i32 %7, %8
  br i1 %9, label %10, label %11

10:                                               ; preds = %2
  br label %36

11:                                               ; preds = %2
  %12 = load ptr, ptr %3, align 8, !tbaa !27
  %13 = getelementptr inbounds nuw %struct.Vec_Ptr_t_, ptr %12, i32 0, i32 2
  %14 = load ptr, ptr %13, align 8, !tbaa !30
  %15 = icmp ne ptr %14, null
  br i1 %15, label %16, label %24

16:                                               ; preds = %11
  %17 = load ptr, ptr %3, align 8, !tbaa !27
  %18 = getelementptr inbounds nuw %struct.Vec_Ptr_t_, ptr %17, i32 0, i32 2
  %19 = load ptr, ptr %18, align 8, !tbaa !30
  %20 = load i32, ptr %4, align 4, !tbaa !8
  %21 = sext i32 %20 to i64
  %22 = mul i64 8, %21
  %23 = call ptr @realloc(ptr noundef %19, i64 noundef %22) #9
  br label %29

24:                                               ; preds = %11
  %25 = load i32, ptr %4, align 4, !tbaa !8
  %26 = sext i32 %25 to i64
  %27 = mul i64 8, %26
  %28 = call noalias ptr @malloc(i64 noundef %27) #8
  br label %29

29:                                               ; preds = %24, %16
  %30 = phi ptr [ %23, %16 ], [ %28, %24 ]
  %31 = load ptr, ptr %3, align 8, !tbaa !27
  %32 = getelementptr inbounds nuw %struct.Vec_Ptr_t_, ptr %31, i32 0, i32 2
  store ptr %30, ptr %32, align 8, !tbaa !30
  %33 = load i32, ptr %4, align 4, !tbaa !8
  %34 = load ptr, ptr %3, align 8, !tbaa !27
  %35 = getelementptr inbounds nuw %struct.Vec_Ptr_t_, ptr %34, i32 0, i32 0
  store i32 %33, ptr %35, align 8, !tbaa !41
  br label %36

36:                                               ; preds = %29, %10
  ret void
}

; Function Attrs: inlinehint nounwind uwtable
define internal ptr @Hop_ObjChild1(ptr noundef %0) #3 {
  %2 = alloca ptr, align 8
  store ptr %0, ptr %2, align 8, !tbaa !19
  %3 = load ptr, ptr %2, align 8, !tbaa !19
  %4 = getelementptr inbounds nuw %struct.Hop_Obj_t_, ptr %3, i32 0, i32 3
  %5 = load ptr, ptr %4, align 8, !tbaa !42
  ret ptr %5
}

; Function Attrs: inlinehint nounwind uwtable
define internal ptr @Hop_ObjChild0(ptr noundef %0) #3 {
  %2 = alloca ptr, align 8
  store ptr %0, ptr %2, align 8, !tbaa !19
  %3 = load ptr, ptr %2, align 8, !tbaa !19
  %4 = getelementptr inbounds nuw %struct.Hop_Obj_t_, ptr %3, i32 0, i32 2
  %5 = load ptr, ptr %4, align 8, !tbaa !37
  ret ptr %5
}

; Function Attrs: inlinehint nounwind uwtable
define internal void @Vec_PtrPush(ptr noundef %0, ptr noundef %1) #3 {
  %3 = alloca ptr, align 8
  %4 = alloca ptr, align 8
  store ptr %0, ptr %3, align 8, !tbaa !27
  store ptr %1, ptr %4, align 8, !tbaa !31
  %5 = load ptr, ptr %3, align 8, !tbaa !27
  %6 = getelementptr inbounds nuw %struct.Vec_Ptr_t_, ptr %5, i32 0, i32 1
  %7 = load i32, ptr %6, align 4, !tbaa !28
  %8 = load ptr, ptr %3, align 8, !tbaa !27
  %9 = getelementptr inbounds nuw %struct.Vec_Ptr_t_, ptr %8, i32 0, i32 0
  %10 = load i32, ptr %9, align 8, !tbaa !41
  %11 = icmp eq i32 %7, %10
  br i1 %11, label %12, label %26

12:                                               ; preds = %2
  %13 = load ptr, ptr %3, align 8, !tbaa !27
  %14 = getelementptr inbounds nuw %struct.Vec_Ptr_t_, ptr %13, i32 0, i32 0
  %15 = load i32, ptr %14, align 8, !tbaa !41
  %16 = icmp slt i32 %15, 16
  br i1 %16, label %17, label %19

17:                                               ; preds = %12
  %18 = load ptr, ptr %3, align 8, !tbaa !27
  call void @Vec_PtrGrow(ptr noundef %18, i32 noundef 16)
  br label %25

19:                                               ; preds = %12
  %20 = load ptr, ptr %3, align 8, !tbaa !27
  %21 = load ptr, ptr %3, align 8, !tbaa !27
  %22 = getelementptr inbounds nuw %struct.Vec_Ptr_t_, ptr %21, i32 0, i32 0
  %23 = load i32, ptr %22, align 8, !tbaa !41
  %24 = mul nsw i32 2, %23
  call void @Vec_PtrGrow(ptr noundef %20, i32 noundef %24)
  br label %25

25:                                               ; preds = %19, %17
  br label %26

26:                                               ; preds = %25, %2
  %27 = load ptr, ptr %4, align 8, !tbaa !31
  %28 = load ptr, ptr %3, align 8, !tbaa !27
  %29 = getelementptr inbounds nuw %struct.Vec_Ptr_t_, ptr %28, i32 0, i32 2
  %30 = load ptr, ptr %29, align 8, !tbaa !30
  %31 = load ptr, ptr %3, align 8, !tbaa !27
  %32 = getelementptr inbounds nuw %struct.Vec_Ptr_t_, ptr %31, i32 0, i32 1
  %33 = load i32, ptr %32, align 4, !tbaa !28
  %34 = add nsw i32 %33, 1
  store i32 %34, ptr %32, align 4, !tbaa !28
  %35 = sext i32 %33 to i64
  %36 = getelementptr inbounds ptr, ptr %30, i64 %35
  store ptr %27, ptr %36, align 8, !tbaa !31
  ret void
}

; Function Attrs: inlinehint nounwind uwtable
define internal i32 @Vec_PtrSize(ptr noundef %0) #3 {
  %2 = alloca ptr, align 8
  store ptr %0, ptr %2, align 8, !tbaa !27
  %3 = load ptr, ptr %2, align 8, !tbaa !27
  %4 = getelementptr inbounds nuw %struct.Vec_Ptr_t_, ptr %3, i32 0, i32 1
  %5 = load i32, ptr %4, align 4, !tbaa !28
  ret i32 %5
}

; Function Attrs: inlinehint nounwind uwtable
define internal i32 @Hop_ObjRefs(ptr noundef %0) #3 {
  %2 = alloca ptr, align 8
  store ptr %0, ptr %2, align 8, !tbaa !19
  %3 = load ptr, ptr %2, align 8, !tbaa !19
  %4 = getelementptr inbounds nuw %struct.Hop_Obj_t_, ptr %3, i32 0, i32 4
  %5 = load i32, ptr %4, align 8
  %6 = lshr i32 %5, 6
  ret i32 %6
}

; Function Attrs: inlinehint nounwind uwtable
define internal i32 @Hop_ObjType(ptr noundef %0) #3 {
  %2 = alloca ptr, align 8
  store ptr %0, ptr %2, align 8, !tbaa !19
  %3 = load ptr, ptr %2, align 8, !tbaa !19
  %4 = getelementptr inbounds nuw %struct.Hop_Obj_t_, ptr %3, i32 0, i32 4
  %5 = load i32, ptr %4, align 8
  %6 = and i32 %5, 7
  ret i32 %6
}

; Function Attrs: inlinehint nounwind uwtable
define internal i32 @Hop_IsComplement(ptr noundef %0) #3 {
  %2 = alloca ptr, align 8
  store ptr %0, ptr %2, align 8, !tbaa !19
  %3 = load ptr, ptr %2, align 8, !tbaa !19
  %4 = ptrtoint ptr %3 to i64
  %5 = and i64 %4, 1
  %6 = trunc i64 %5 to i32
  ret i32 %6
}

; Function Attrs: inlinehint nounwind uwtable
define internal ptr @Hop_Not(ptr noundef %0) #3 {
  %2 = alloca ptr, align 8
  store ptr %0, ptr %2, align 8, !tbaa !19
  %3 = load ptr, ptr %2, align 8, !tbaa !19
  %4 = ptrtoint ptr %3 to i64
  %5 = xor i64 %4, 1
  %6 = inttoptr i64 %5 to ptr
  ret ptr %6
}

; Function Attrs: inlinehint nounwind uwtable
define internal ptr @Hop_Regular(ptr noundef %0) #3 {
  %2 = alloca ptr, align 8
  store ptr %0, ptr %2, align 8, !tbaa !19
  %3 = load ptr, ptr %2, align 8, !tbaa !19
  %4 = ptrtoint ptr %3 to i64
  %5 = and i64 %4, -2
  %6 = inttoptr i64 %5 to ptr
  ret ptr %6
}

; Function Attrs: nounwind uwtable
define i32 @Hop_NodeBalanceCone_rec(ptr noundef %0, ptr noundef %1, ptr noundef %2) #0 {
  %4 = alloca i32, align 4
  %5 = alloca ptr, align 8
  %6 = alloca ptr, align 8
  %7 = alloca ptr, align 8
  %8 = alloca i32, align 4
  %9 = alloca i32, align 4
  %10 = alloca i32, align 4
  %11 = alloca i32, align 4
  store ptr %0, ptr %5, align 8, !tbaa !19
  store ptr %1, ptr %6, align 8, !tbaa !19
  store ptr %2, ptr %7, align 8, !tbaa !27
  call void @llvm.lifetime.start.p0(i64 4, ptr %8) #7
  call void @llvm.lifetime.start.p0(i64 4, ptr %9) #7
  call void @llvm.lifetime.start.p0(i64 4, ptr %10) #7
  %12 = load ptr, ptr %6, align 8, !tbaa !19
  %13 = call ptr @Hop_Regular(ptr noundef %12)
  %14 = getelementptr inbounds nuw %struct.Hop_Obj_t_, ptr %13, i32 0, i32 4
  %15 = load i32, ptr %14, align 8
  %16 = lshr i32 %15, 5
  %17 = and i32 %16, 1
  %18 = icmp ne i32 %17, 0
  br i1 %18, label %19, label %65

19:                                               ; preds = %3
  store i32 0, ptr %10, align 4, !tbaa !8
  br label %20

20:                                               ; preds = %38, %19
  %21 = load i32, ptr %10, align 4, !tbaa !8
  %22 = load ptr, ptr %7, align 8, !tbaa !27
  %23 = getelementptr inbounds nuw %struct.Vec_Ptr_t_, ptr %22, i32 0, i32 1
  %24 = load i32, ptr %23, align 4, !tbaa !28
  %25 = icmp slt i32 %21, %24
  br i1 %25, label %26, label %41

26:                                               ; preds = %20
  %27 = load ptr, ptr %7, align 8, !tbaa !27
  %28 = getelementptr inbounds nuw %struct.Vec_Ptr_t_, ptr %27, i32 0, i32 2
  %29 = load ptr, ptr %28, align 8, !tbaa !30
  %30 = load i32, ptr %10, align 4, !tbaa !8
  %31 = sext i32 %30 to i64
  %32 = getelementptr inbounds ptr, ptr %29, i64 %31
  %33 = load ptr, ptr %32, align 8, !tbaa !31
  %34 = load ptr, ptr %6, align 8, !tbaa !19
  %35 = icmp eq ptr %33, %34
  br i1 %35, label %36, label %37

36:                                               ; preds = %26
  store i32 1, ptr %4, align 4
  store i32 1, ptr %11, align 4
  br label %122

37:                                               ; preds = %26
  br label %38

38:                                               ; preds = %37
  %39 = load i32, ptr %10, align 4, !tbaa !8
  %40 = add nsw i32 %39, 1
  store i32 %40, ptr %10, align 4, !tbaa !8
  br label %20, !llvm.loop !39

41:                                               ; preds = %20
  store i32 0, ptr %10, align 4, !tbaa !8
  br label %42

42:                                               ; preds = %61, %41
  %43 = load i32, ptr %10, align 4, !tbaa !8
  %44 = load ptr, ptr %7, align 8, !tbaa !27
  %45 = getelementptr inbounds nuw %struct.Vec_Ptr_t_, ptr %44, i32 0, i32 1
  %46 = load i32, ptr %45, align 4, !tbaa !28
  %47 = icmp slt i32 %43, %46
  br i1 %47, label %48, label %64

48:                                               ; preds = %42
  %49 = load ptr, ptr %7, align 8, !tbaa !27
  %50 = getelementptr inbounds nuw %struct.Vec_Ptr_t_, ptr %49, i32 0, i32 2
  %51 = load ptr, ptr %50, align 8, !tbaa !30
  %52 = load i32, ptr %10, align 4, !tbaa !8
  %53 = sext i32 %52 to i64
  %54 = getelementptr inbounds ptr, ptr %51, i64 %53
  %55 = load ptr, ptr %54, align 8, !tbaa !31
  %56 = load ptr, ptr %6, align 8, !tbaa !19
  %57 = call ptr @Hop_Not(ptr noundef %56)
  %58 = icmp eq ptr %55, %57
  br i1 %58, label %59, label %60

59:                                               ; preds = %48
  store i32 -1, ptr %4, align 4
  store i32 1, ptr %11, align 4
  br label %122

60:                                               ; preds = %48
  br label %61

61:                                               ; preds = %60
  %62 = load i32, ptr %10, align 4, !tbaa !8
  %63 = add nsw i32 %62, 1
  store i32 %63, ptr %10, align 4, !tbaa !8
  br label %42, !llvm.loop !40

64:                                               ; preds = %42
  store i32 0, ptr %4, align 4
  store i32 1, ptr %11, align 4
  br label %122

65:                                               ; preds = %3
  %66 = load ptr, ptr %6, align 8, !tbaa !19
  %67 = load ptr, ptr %5, align 8, !tbaa !19
  %68 = icmp ne ptr %66, %67
  br i1 %68, label %69, label %96

69:                                               ; preds = %65
  %70 = load ptr, ptr %6, align 8, !tbaa !19
  %71 = call i32 @Hop_IsComplement(ptr noundef %70)
  %72 = icmp ne i32 %71, 0
  br i1 %72, label %87, label %73

73:                                               ; preds = %69
  %74 = load ptr, ptr %6, align 8, !tbaa !19
  %75 = call i32 @Hop_ObjType(ptr noundef %74)
  %76 = load ptr, ptr %5, align 8, !tbaa !19
  %77 = call i32 @Hop_ObjType(ptr noundef %76)
  %78 = icmp ne i32 %75, %77
  br i1 %78, label %87, label %79

79:                                               ; preds = %73
  %80 = load ptr, ptr %6, align 8, !tbaa !19
  %81 = call i32 @Hop_ObjRefs(ptr noundef %80)
  %82 = icmp sgt i32 %81, 1
  br i1 %82, label %87, label %83

83:                                               ; preds = %79
  %84 = load ptr, ptr %7, align 8, !tbaa !27
  %85 = call i32 @Vec_PtrSize(ptr noundef %84)
  %86 = icmp sgt i32 %85, 10000
  br i1 %86, label %87, label %96

87:                                               ; preds = %83, %79, %73, %69
  %88 = load ptr, ptr %7, align 8, !tbaa !27
  %89 = load ptr, ptr %6, align 8, !tbaa !19
  call void @Vec_PtrPush(ptr noundef %88, ptr noundef %89)
  %90 = load ptr, ptr %6, align 8, !tbaa !19
  %91 = call ptr @Hop_Regular(ptr noundef %90)
  %92 = getelementptr inbounds nuw %struct.Hop_Obj_t_, ptr %91, i32 0, i32 4
  %93 = load i32, ptr %92, align 8
  %94 = and i32 %93, -33
  %95 = or i32 %94, 32
  store i32 %95, ptr %92, align 8
  store i32 0, ptr %4, align 4
  store i32 1, ptr %11, align 4
  br label %122

96:                                               ; preds = %83, %65
  %97 = load ptr, ptr %5, align 8, !tbaa !19
  %98 = load ptr, ptr %6, align 8, !tbaa !19
  %99 = call ptr @Hop_ObjChild0(ptr noundef %98)
  %100 = load ptr, ptr %7, align 8, !tbaa !27
  %101 = call i32 @Hop_NodeBalanceCone_rec(ptr noundef %97, ptr noundef %99, ptr noundef %100)
  store i32 %101, ptr %8, align 4, !tbaa !8
  %102 = load ptr, ptr %5, align 8, !tbaa !19
  %103 = load ptr, ptr %6, align 8, !tbaa !19
  %104 = call ptr @Hop_ObjChild1(ptr noundef %103)
  %105 = load ptr, ptr %7, align 8, !tbaa !27
  %106 = call i32 @Hop_NodeBalanceCone_rec(ptr noundef %102, ptr noundef %104, ptr noundef %105)
  store i32 %106, ptr %9, align 4, !tbaa !8
  %107 = load i32, ptr %8, align 4, !tbaa !8
  %108 = icmp eq i32 %107, -1
  br i1 %108, label %112, label %109

109:                                              ; preds = %96
  %110 = load i32, ptr %9, align 4, !tbaa !8
  %111 = icmp eq i32 %110, -1
  br i1 %111, label %112, label %113

112:                                              ; preds = %109, %96
  store i32 -1, ptr %4, align 4
  store i32 1, ptr %11, align 4
  br label %122

113:                                              ; preds = %109
  %114 = load i32, ptr %8, align 4, !tbaa !8
  %115 = icmp ne i32 %114, 0
  br i1 %115, label %119, label %116

116:                                              ; preds = %113
  %117 = load i32, ptr %9, align 4, !tbaa !8
  %118 = icmp ne i32 %117, 0
  br label %119

119:                                              ; preds = %116, %113
  %120 = phi i1 [ true, %113 ], [ %118, %116 ]
  %121 = zext i1 %120 to i32
  store i32 %121, ptr %4, align 4
  store i32 1, ptr %11, align 4
  br label %122

122:                                              ; preds = %119, %112, %87, %64, %59, %36
  call void @llvm.lifetime.end.p0(i64 4, ptr %10) #7
  call void @llvm.lifetime.end.p0(i64 4, ptr %9) #7
  call void @llvm.lifetime.end.p0(i64 4, ptr %8) #7
  %123 = load i32, ptr %4, align 4
  ret i32 %123
}