; Function Attrs: nounwind uwtable
define range(i32 -1, 2) i32 @Hop_NodeBalanceCone_rec(ptr noundef %0, ptr noundef %1, ptr noundef %2) local_unnamed_addr #0 {
  %4 = ptrtoint ptr %1 to i64
  %5 = and i64 %4, -2
  %6 = inttoptr i64 %5 to ptr
  %7 = getelementptr inbounds nuw i8, ptr %6, i64 32
  %8 = load i32, ptr %7, align 8
  %9 = and i32 %8, 32
  %.not = icmp eq i32 %9, 0
  br i1 %.not, label %29, label %.preheader49

.preheader49:                                     ; preds = %3
  %10 = getelementptr inbounds nuw i8, ptr %2, i64 4
  %11 = load i32, ptr %10, align 4, !tbaa !17
  %12 = icmp sgt i32 %11, 0
  br i1 %12, label %.lr.ph, label %.loopexit

.lr.ph:                                           ; preds = %.preheader49
  %13 = getelementptr inbounds nuw i8, ptr %2, i64 8
  %14 = load ptr, ptr %13, align 8, !tbaa !19
  %wide.trip.count = zext nneg i32 %11 to i64
  br label %20

15:                                               ; preds = %20
  %indvars.iv.next = add nuw nsw i64 %indvars.iv, 1
  %exitcond.not = icmp eq i64 %indvars.iv.next, %wide.trip.count
  br i1 %exitcond.not, label %.lr.ph54, label %20, !llvm.loop !35

.lr.ph54:                                         ; preds = %15
  %16 = getelementptr inbounds nuw i8, ptr %2, i64 8
  %17 = load ptr, ptr %16, align 8, !tbaa !19
  %18 = xor i64 %4, 1
  %19 = inttoptr i64 %18 to ptr
  %wide.trip.count63 = zext nneg i32 %11 to i64
  br label %25

20:                                               ; preds = %.lr.ph, %15
  %indvars.iv = phi i64 [ 0, %.lr.ph ], [ %indvars.iv.next, %15 ]
  %21 = getelementptr inbounds nuw ptr, ptr %14, i64 %indvars.iv
  %22 = load ptr, ptr %21, align 8, !tbaa !20
  %23 = icmp eq ptr %22, %1
  br i1 %23, label %.loopexit, label %15

24:                                               ; preds = %25
  %indvars.iv.next61 = add nuw nsw i64 %indvars.iv60, 1
  %exitcond64.not = icmp eq i64 %indvars.iv.next61, %wide.trip.count63
  br i1 %exitcond64.not, label %.loopexit, label %25, !llvm.loop !36

25:                                               ; preds = %.lr.ph54, %24
  %indvars.iv60 = phi i64 [ 0, %.lr.ph54 ], [ %indvars.iv.next61, %24 ]
  %26 = getelementptr inbounds nuw ptr, ptr %17, i64 %indvars.iv60
  %27 = load ptr, ptr %26, align 8, !tbaa !20
  %28 = icmp eq ptr %27, %19
  br i1 %28, label %.loopexit, label %24

29:                                               ; preds = %3
  %.not39 = icmp eq ptr %1, %0
  br i1 %.not39, label %75, label %30

30:                                               ; preds = %29
  %31 = and i64 %4, 1
  %.not40 = icmp eq i64 %31, 0
  br i1 %.not40, label %32, label %41

32:                                               ; preds = %30
  %33 = getelementptr i8, ptr %1, i64 32
  %.val42 = load i32, ptr %33, align 8
  %34 = getelementptr i8, ptr %0, i64 32
  %.val43 = load i32, ptr %34, align 8
  %35 = xor i32 %.val43, %.val42
  %36 = and i32 %35, 7
  %.not41 = icmp ne i32 %36, 0
  %37 = icmp ugt i32 %.val42, 127
  %or.cond48 = or i1 %37, %.not41
  br i1 %or.cond48, label %41, label %38

38:                                               ; preds = %32
  %39 = getelementptr i8, ptr %2, i64 4
  %.val = load i32, ptr %39, align 4, !tbaa !17
  %40 = icmp sgt i32 %.val, 10000
  br i1 %40, label %41, label %75

41:                                               ; preds = %38, %32, %30
  %42 = getelementptr inbounds nuw i8, ptr %2, i64 4
  %43 = load i32, ptr %42, align 4, !tbaa !17
  %44 = load i32, ptr %2, align 8, !tbaa !31
  %45 = icmp eq i32 %43, %44
  br i1 %45, label %46, label %.Vec_PtrGrow.exit11_crit_edge.i

.Vec_PtrGrow.exit11_crit_edge.i:                  ; preds = %41
  %.phi.trans.insert.i = getelementptr inbounds nuw i8, ptr %2, i64 8
  %.pre.i = load ptr, ptr %.phi.trans.insert.i, align 8, !tbaa !19
  br label %Vec_PtrPush.exit

46:                                               ; preds = %41
  %47 = icmp slt i32 %43, 16
  br i1 %47, label %48, label %56

48:                                               ; preds = %46
  %49 = getelementptr inbounds nuw i8, ptr %2, i64 8
  %50 = load ptr, ptr %49, align 8, !tbaa !19
  %.not9.i.i = icmp eq ptr %50, null
  br i1 %.not9.i.i, label %53, label %51

51:                                               ; preds = %48
  %52 = tail call dereferenceable_or_null(128) ptr @realloc(ptr noundef nonnull %50, i64 noundef 128) #11
  br label %Vec_PtrGrow.exit.i

53:                                               ; preds = %48
  %54 = tail call noalias dereferenceable_or_null(128) ptr @malloc(i64 noundef 128) #10
  br label %Vec_PtrGrow.exit.i

Vec_PtrGrow.exit.i:                               ; preds = %53, %51
  %55 = phi ptr [ %52, %51 ], [ %54, %53 ]
  store ptr %55, ptr %49, align 8, !tbaa !19
  store i32 16, ptr %2, align 8, !tbaa !31
  br label %Vec_PtrPush.exit

56:                                               ; preds = %46
  %57 = shl nuw nsw i32 %43, 1
  %58 = getelementptr inbounds nuw i8, ptr %2, i64 8
  %59 = load ptr, ptr %58, align 8, !tbaa !19
  %.not9.i10.i = icmp eq ptr %59, null
  %60 = zext nneg i32 %57 to i64
  %61 = shl nuw nsw i64 %60, 3
  br i1 %.not9.i10.i, label %64, label %62

62:                                               ; preds = %56
  %63 = tail call ptr @realloc(ptr noundef nonnull %59, i64 noundef %61) #11
  br label %66

64:                                               ; preds = %56
  %65 = tail call noalias ptr @malloc(i64 noundef %61) #10
  br label %66

66:                                               ; preds = %64, %62
  %67 = phi ptr [ %63, %62 ], [ %65, %64 ]
  store ptr %67, ptr %58, align 8, !tbaa !19
  store i32 %57, ptr %2, align 8, !tbaa !31
  br label %Vec_PtrPush.exit

Vec_PtrPush.exit:                                 ; preds = %.Vec_PtrGrow.exit11_crit_edge.i, %Vec_PtrGrow.exit.i, %66
  %68 = phi ptr [ %.pre.i, %.Vec_PtrGrow.exit11_crit_edge.i ], [ %67, %66 ], [ %55, %Vec_PtrGrow.exit.i ]
  %69 = load i32, ptr %42, align 4, !tbaa !17
  %70 = add nsw i32 %69, 1
  store i32 %70, ptr %42, align 4, !tbaa !17
  %71 = sext i32 %69 to i64
  %72 = getelementptr inbounds ptr, ptr %68, i64 %71
  store ptr %1, ptr %72, align 8, !tbaa !20
  %73 = load i32, ptr %7, align 8
  %74 = or i32 %73, 32
  store i32 %74, ptr %7, align 8
  br label %.loopexit

75:                                               ; preds = %38, %29
  %76 = getelementptr i8, ptr %1, i64 16
  %.val45 = load ptr, ptr %76, align 8, !tbaa !28
  %77 = tail call i32 @Hop_NodeBalanceCone_rec(ptr noundef %0, ptr noundef %.val45, ptr noundef %2)
  %78 = getelementptr i8, ptr %1, i64 24
  %.val46 = load ptr, ptr %78, align 8, !tbaa !37
  %79 = tail call i32 @Hop_NodeBalanceCone_rec(ptr noundef %0, ptr noundef %.val46, ptr noundef %2)
  %80 = icmp eq i32 %77, -1
  %81 = icmp eq i32 %79, -1
  %or.cond = select i1 %80, i1 true, i1 %81
  br i1 %or.cond, label %.loopexit, label %82

82:                                               ; preds = %75
  %83 = icmp ne i32 %77, 0
  %84 = icmp ne i32 %79, 0
  %85 = select i1 %83, i1 true, i1 %84
  %86 = zext i1 %85 to i32
  br label %.loopexit

.loopexit:                                        ; preds = %20, %25, %24, %.preheader49, %75, %82, %Vec_PtrPush.exit
  %.034 = phi i32 [ 0, %Vec_PtrPush.exit ], [ %86, %82 ], [ -1, %75 ], [ 0, %.preheader49 ], [ -1, %25 ], [ 0, %24 ], [ 1, %20 ]
  ret i32 %.034
}